; Function Attrs: mustprogress uwtable
define hidden void @_ZN6Assimp3IFC17AssignAddedMeshesERSt3setIjSt4lessIjESaIjEEP6aiNodeRNS0_14ConversionDataE(ptr noundef nonnull readonly align 8 captures(address) dereferenceable(48) %0, ptr noundef captures(none) %1, ptr noundef nonnull readnone align 8 captures(none) dereferenceable(392) %2) local_unnamed_addr #0 {
  %4 = getelementptr inbounds nuw i8, ptr %0, i64 40
  %5 = load i64, ptr %4, align 8
  %6 = icmp eq i64 %5, 0
  br i1 %6, label %.critedge, label %7

7:                                                ; preds = %3
  %8 = getelementptr inbounds nuw i8, ptr %0, i64 24
  %9 = load ptr, ptr %8, align 8
  %10 = getelementptr inbounds nuw i8, ptr %0, i64 8
  %11 = trunc i64 %5 to i32
  %12 = getelementptr inbounds nuw i8, ptr %1, i64 1120
  store i32 %11, ptr %12, align 8
  %13 = shl i64 %5, 2
  %14 = and i64 %13, 17179869180
  %15 = tail call noalias noundef nonnull ptr @_Znam(i64 noundef %14) #29
  %16 = getelementptr inbounds nuw i8, ptr %1, i64 1128
  store ptr %15, ptr %16, align 8
  %.not14 = icmp eq ptr %9, %10
  br i1 %.not14, label %.critedge, label %.lr.ph

.lr.ph:                                           ; preds = %7, %20
  %indvars.iv = phi i64 [ %indvars.iv.next, %20 ], [ 0, %7 ]
  %.sroa.011.015 = phi ptr [ %25, %20 ], [ %9, %7 ]
  %17 = load i32, ptr %12, align 8
  %18 = zext i32 %17 to i64
  %19 = icmp samesign ult i64 %indvars.iv, %18
  br i1 %19, label %20, label %.critedge

20:                                               ; preds = %.lr.ph
  %21 = getelementptr inbounds nuw i8, ptr %.sroa.011.015, i64 32
  %22 = load i32, ptr %21, align 4
  %23 = load ptr, ptr %16, align 8
  %24 = getelementptr inbounds nuw i32, ptr %23, i64 %indvars.iv
  store i32 %22, ptr %24, align 4
  %indvars.iv.next = add nuw nsw i64 %indvars.iv, 1
  %25 = tail call noundef ptr @_ZSt18_Rb_tree_incrementPKSt18_Rb_tree_node_base(ptr noundef %.sroa.011.015) #33
  %.not = icmp eq ptr %25, %10
  br i1 %.not, label %.critedge, label %.lr.ph, !llvm.loop !225

.critedge:                                        ; preds = %20, %.lr.ph, %7, %3
  ret void
}